target datalayout = "e-m:e-p270:32:32-p271:32:32-p272:64:64-i64:64-i128:128-f80:128-n8:16:32:64-S128"
target triple = "x86_64-pc-linux-gnu"

%struct._zval_struct = type { %union._zend_value, %union.anon.3, %union.anon.6 }
%union._zend_value = type { i64 }
%union.anon.3 = type { i32 }
%union.anon.6 = type { i32 }
%struct._zend_array = type { %struct._zend_refcounted_h, %union.anon.0, i32, %union.anon.1, i32, i32, i32, i32, i64, ptr }
%struct._zend_refcounted_h = type { i32, %union.anon }
%union.anon = type { i32 }
%union.anon.0 = type { i32 }
%union.anon.1 = type { ptr }
%struct._spl_SplObjectStorage = type { %struct._zend_array, i64, i32, i64, ptr, %struct._zend_object }
%struct._zend_object = type { %struct._zend_refcounted_h, i32, ptr, ptr, ptr, [1 x %struct._zval_struct] }

; Function Attrs: nounwind uwtable
define internal ptr @spl_object_storage_from_obj(ptr noundef %0) #0 {
  %2 = alloca ptr, align 8
  store ptr %0, ptr %2, align 8
  %3 = load ptr, ptr %2, align 8
  %4 = getelementptr inbounds i8, ptr %3, i64 -88
  ret ptr %4
}

; Function Attrs: nounwind uwtable
define internal void @spl_object_storage_write_dimension(ptr noundef %0, ptr noundef %1, ptr noundef %2) #0 {
  %4 = alloca ptr, align 8
  %5 = alloca ptr, align 8
  %6 = alloca ptr, align 8
  %7 = alloca ptr, align 8
  %8 = alloca ptr, align 8
  store ptr %0, ptr %5, align 8
  store ptr %1, ptr %6, align 8
  store ptr %2, ptr %7, align 8
  %9 = load ptr, ptr %5, align 8
  %10 = call ptr @spl_object_storage_from_obj(ptr noundef %9)
  store ptr %10, ptr %8, align 8
  %11 = load ptr, ptr %6, align 8
  %12 = icmp eq ptr %11, null
  br i1 %12, label %26, label %13

13:                                               ; preds = %3
  %14 = load ptr, ptr %6, align 8
  store ptr %14, ptr %4, align 8
  %15 = load ptr, ptr %4, align 8
  %16 = getelementptr inbounds %struct._zval_struct, ptr %15, i32 0, i32 1
  %17 = load i8, ptr %16, align 8
  %18 = zext i8 %17 to i32
  %19 = icmp ne i32 %18, 8
  br i1 %19, label %26, label %20

20:                                               ; preds = %13
  %21 = load ptr, ptr %8, align 8
  %22 = getelementptr inbounds %struct._spl_SplObjectStorage, ptr %21, i32 0, i32 3
  %23 = load i64, ptr %22, align 8
  %24 = and i64 %23, 2
  %25 = icmp ne i64 %24, 0
  br label %26

26:                                               ; preds = %20, %13, %3
  %27 = phi i1 [ true, %13 ], [ true, %3 ], [ %25, %20 ]
  %28 = xor i1 %27, true
  %29 = xor i1 %28, true
  %30 = zext i1 %29 to i32
  %31 = sext i32 %30 to i64
  %32 = icmp ne i64 %31, 0
  br i1 %32, label %33, label %37

33:                                               ; preds = %26
  %34 = load ptr, ptr %5, align 8
  %35 = load ptr, ptr %6, align 8
  %36 = load ptr, ptr %7, align 8
  call void @zend_std_write_dimension(ptr noundef %34, ptr noundef %35, ptr noundef %36)
  br label %44

37:                                               ; preds = %26
  %38 = load ptr, ptr %8, align 8
  %39 = load ptr, ptr %6, align 8
  %40 = getelementptr inbounds %struct._zval_struct, ptr %39, i32 0, i32 0
  %41 = load ptr, ptr %40, align 8
  %42 = load ptr, ptr %7, align 8
  %43 = call ptr @spl_object_storage_attach_handle(ptr noundef %38, ptr noundef %41, ptr noundef %42)
  br label %44

44:                                               ; preds = %37, %33
  ret void
}