; Function Attrs: nounwind uwtable
define internal void @spl_object_storage_write_dimension(ptr noundef %0, ptr noundef %1, ptr noundef %2) #0 {
  %4 = getelementptr inbounds i8, ptr %0, i64 -88
  %5 = icmp eq ptr %1, null
  br i1 %5, label %.critedge, label %6

6:                                                ; preds = %3
  %7 = getelementptr inbounds i8, ptr %1, i64 8
  %8 = load i8, ptr %7, align 8
  %.not = icmp eq i8 %8, 8
  br i1 %.not, label %9, label %.critedge

9:                                                ; preds = %6
  %10 = getelementptr inbounds i8, ptr %0, i64 -16
  %11 = load i64, ptr %10, align 8
  %12 = and i64 %11, 2
  %.not11 = icmp eq i64 %12, 0
  br i1 %.not11, label %13, label %.critedge

.critedge:                                        ; preds = %6, %3, %9
  tail call void @zend_std_write_dimension(ptr noundef %0, ptr noundef %1, ptr noundef %2) #10
  br label %16

13:                                               ; preds = %9
  %14 = load ptr, ptr %1, align 8
  %15 = tail call fastcc ptr @spl_object_storage_attach_handle(ptr noundef nonnull %4, ptr noundef %14, ptr noundef %2)
  br label %16

16:                                               ; preds = %13, %.critedge
  ret void
}